target datalayout = "e-m:e-p270:32:32-p271:32:32-p272:64:64-i64:64-i128:128-f80:128-n8:16:32:64-S128"
target triple = "x86_64-pc-linux-gnu"

%class.Sample = type { ptr, ptr, ptr, ptr, ptr, i8, float, float, float, float, float, float, float, float, float, float, float, float, float, i32, i8, i8, i8, ptr, [9 x ptr], ptr, %class.SampleDebugDraw }
%class.SampleDebugDraw = type { %class.DebugDrawGL }
%class.DebugDrawGL = type { %struct.duDebugDraw }
%struct.duDebugDraw = type { ptr }

; Function Attrs: mustprogress nounwind uwtable
define linkonce_odr dso_local void @_ZN11DebugDrawGLD2Ev(ptr noundef nonnull align 8 dereferenceable(8) %0) unnamed_addr #0 comdat align 2 {
  %2 = alloca ptr, align 8
  store ptr %0, ptr %2, align 8
  %3 = load ptr, ptr %2, align 8
  call void @_ZN11duDebugDrawD2Ev(ptr noundef nonnull align 8 dereferenceable(8) %3) #10
  ret void
}

; Function Attrs: mustprogress nounwind uwtable
define linkonce_odr dso_local void @_ZN15SampleDebugDrawD2Ev(ptr noundef nonnull align 8 dereferenceable(8) %0) unnamed_addr #0 comdat align 2 {
  %2 = alloca ptr, align 8
  store ptr %0, ptr %2, align 8
  %3 = load ptr, ptr %2, align 8
  call void @_ZN11DebugDrawGLD2Ev(ptr noundef nonnull align 8 dereferenceable(8) %3) #10
  ret void
}

; Function Attrs: mustprogress nounwind uwtable
define dso_local void @_ZN6SampleD2Ev(ptr noundef nonnull align 8 dereferenceable(200) %0) unnamed_addr #0 align 2 personality ptr @__gxx_personality_v0 {
  %2 = alloca ptr, align 8
  %3 = alloca i32, align 4
  store ptr %0, ptr %2, align 8
  %4 = load ptr, ptr %2, align 8
  store ptr getelementptr inbounds ({ [23 x ptr] }, ptr @_ZTV6Sample, i32 0, i32 0, i32 2), ptr %4, align 8
  %5 = getelementptr inbounds %class.Sample, ptr %4, i32 0, i32 3
  %6 = load ptr, ptr %5, align 8
  invoke void @_Z18dtFreeNavMeshQueryP14dtNavMeshQuery(ptr noundef %6)
          to label %7 unwind label %42

7:                                                ; preds = %1
  %8 = getelementptr inbounds %class.Sample, ptr %4, i32 0, i32 2
  %9 = load ptr, ptr %8, align 8
  invoke void @_Z13dtFreeNavMeshP9dtNavMesh(ptr noundef %9)
          to label %10 unwind label %42

10:                                               ; preds = %7
  %11 = getelementptr inbounds %class.Sample, ptr %4, i32 0, i32 4
  %12 = load ptr, ptr %11, align 8
  invoke void @_Z11dtFreeCrowdP7dtCrowd(ptr noundef %12)
          to label %13 unwind label %42

13:                                               ; preds = %10
  %14 = getelementptr inbounds %class.Sample, ptr %4, i32 0, i32 23
  %15 = load ptr, ptr %14, align 8
  %16 = icmp eq ptr %15, null
  br i1 %16, label %21, label %17

17:                                               ; preds = %13
  %18 = load ptr, ptr %15, align 8
  %19 = getelementptr inbounds ptr, ptr %18, i64 1
  %20 = load ptr, ptr %19, align 8
  call void %20(ptr noundef nonnull align 8 dereferenceable(8) %15) #10
  br label %21

21:                                               ; preds = %17, %13
  store i32 0, ptr %3, align 4
  br label %22

22:                                               ; preds = %37, %21
  %23 = load i32, ptr %3, align 4
  %24 = icmp slt i32 %23, 9
  br i1 %24, label %25, label %40

25:                                               ; preds = %22
  %26 = getelementptr inbounds %class.Sample, ptr %4, i32 0, i32 24
  %27 = load i32, ptr %3, align 4
  %28 = sext i32 %27 to i64
  %29 = getelementptr inbounds [9 x ptr], ptr %26, i64 0, i64 %28
  %30 = load ptr, ptr %29, align 8
  %31 = icmp eq ptr %30, null
  br i1 %31, label %36, label %32

32:                                               ; preds = %25
  %33 = load ptr, ptr %30, align 8
  %34 = getelementptr inbounds ptr, ptr %33, i64 1
  %35 = load ptr, ptr %34, align 8
  call void %35(ptr noundef nonnull align 8 dereferenceable(8) %30) #10
  br label %36

36:                                               ; preds = %32, %25
  br label %37

37:                                               ; preds = %36
  %38 = load i32, ptr %3, align 4
  %39 = add nsw i32 %38, 1
  store i32 %39, ptr %3, align 4
  br label %22, !llvm.loop !7

40:                                               ; preds = %22
  %41 = getelementptr inbounds %class.Sample, ptr %4, i32 0, i32 26
  call void @_ZN15SampleDebugDrawD2Ev(ptr noundef nonnull align 8 dereferenceable(8) %41) #10
  ret void

42:                                               ; preds = %10, %7, %1
  %43 = landingpad { ptr, i32 }
          catch ptr null
  %44 = extractvalue { ptr, i32 } %43, 0
  call void @__clang_call_terminate(ptr %44) #9
  unreachable
}