; Function Attrs: mustprogress nounwind uwtable
define dso_local void @_ZN6SampleD2Ev(ptr noundef nonnull align 8 dereferenceable(200) %0) unnamed_addr #6 align 2 personality ptr @__gxx_personality_v0 {
  store ptr getelementptr inbounds ({ [23 x ptr] }, ptr @_ZTV6Sample, i64 0, i32 0, i64 2), ptr %0, align 8
  %2 = getelementptr inbounds i8, ptr %0, i64 24
  %3 = load ptr, ptr %2, align 8
  invoke void @_Z18dtFreeNavMeshQueryP14dtNavMeshQuery(ptr noundef %3)
          to label %4 unwind label %31

4:                                                ; preds = %1
  %5 = getelementptr inbounds i8, ptr %0, i64 16
  %6 = load ptr, ptr %5, align 8
  invoke void @_Z13dtFreeNavMeshP9dtNavMesh(ptr noundef %6)
          to label %7 unwind label %31

7:                                                ; preds = %4
  %8 = getelementptr inbounds i8, ptr %0, i64 32
  %9 = load ptr, ptr %8, align 8
  invoke void @_Z11dtFreeCrowdP7dtCrowd(ptr noundef %9)
          to label %10 unwind label %31

10:                                               ; preds = %7
  %11 = getelementptr inbounds i8, ptr %0, i64 104
  %12 = load ptr, ptr %11, align 8
  %13 = icmp eq ptr %12, null
  br i1 %13, label %18, label %14

14:                                               ; preds = %10
  %15 = load ptr, ptr %12, align 8
  %16 = getelementptr inbounds i8, ptr %15, i64 8
  %17 = load ptr, ptr %16, align 8
  tail call void %17(ptr noundef nonnull align 8 dereferenceable(8) %12) #15
  br label %18

18:                                               ; preds = %14, %10
  %19 = getelementptr inbounds i8, ptr %0, i64 112
  br label %20

20:                                               ; preds = %18, %28
  %indvars.iv = phi i64 [ 0, %18 ], [ %indvars.iv.next, %28 ]
  %21 = getelementptr inbounds [9 x ptr], ptr %19, i64 0, i64 %indvars.iv
  %22 = load ptr, ptr %21, align 8
  %23 = icmp eq ptr %22, null
  br i1 %23, label %28, label %24

24:                                               ; preds = %20
  %25 = load ptr, ptr %22, align 8
  %26 = getelementptr inbounds i8, ptr %25, i64 8
  %27 = load ptr, ptr %26, align 8
  tail call void %27(ptr noundef nonnull align 8 dereferenceable(8) %22) #15
  br label %28

28:                                               ; preds = %20, %24
  %indvars.iv.next = add nuw nsw i64 %indvars.iv, 1
  %exitcond.not = icmp eq i64 %indvars.iv.next, 9
  br i1 %exitcond.not, label %29, label %20, !llvm.loop !5

29:                                               ; preds = %28
  %30 = getelementptr inbounds i8, ptr %0, i64 192
  tail call void @_ZN11duDebugDrawD2Ev(ptr noundef nonnull align 8 dereferenceable(8) %30) #15
  ret void

31:                                               ; preds = %7, %4, %1
  %32 = landingpad { ptr, i32 }
          catch ptr null
  %33 = extractvalue { ptr, i32 } %32, 0
  tail call void @__clang_call_terminate(ptr %33) #14
  unreachable
}